(dp0
S'METTS MARK'
p1
(dp2
S'salary'
p3
I365788
sS'to_messages'
p4
I807
sS'deferral_payments'
p5
S'NaN'
p6
sS'total_payments'
p7
I1061827
sS'loan_advances'
p8
g6
sS'bonus'
p9
I600000
sS'email_address'
p10
S'mark.metts@enron.com'
p11
sS'restricted_stock_deferred'
p12
g6
sS'deferred_income'
p13
g6
sS'total_stock_value'
p14
I585062
sS'expenses'
p15
I94299
sS'from_poi_to_this_person'
p16
I38
sS'exercised_stock_options'
p17
g6
sS'from_messages'
p18
I29
sS'other'
p19
I1740
sS'from_this_person_to_poi'
p20
I1
sS'poi'
p21
I00
sS'long_term_incentive'
p22
g6
sS'shared_receipt_with_poi'
p23
I702
sS'restricted_stock'
p24
I585062
sS'director_fees'
p25
g6
ssS'BAXTER JOHN C'
p26
(dp27
g3
I267102
sg4
g6
sg5
I1295738
sg7
I5634343
sg8
g6
sg9
I1200000
sg10
g6
sg12
g6
sg13
I-1386055
sg14
I10623258
sg15
I11200
sg16
g6
sg17
I6680544
sg18
g6
sg19
I2660303
sg20
g6
sg21
I00
sg22
I1586055
sg23
g6
sg24
I3942714
sg25
g6
ssS'ELLIOTT STEVEN'
p28
(dp29
g3
I170941
sg4
g6
sg5
g6
sg7
I211725
sg8
g6
sg9
I350000
sg10
S'steven.elliott@enron.com'
p30
sg12
g6
sg13
I-400729
sg14
I6678735
sg15
I78552
sg16
g6
sg17
I4890344
sg18
g6
sg19
I12961
sg20
g6
sg21
I00
sg22
g6
sg23
g6
sg24
I1788391
sg25
g6
ssS'CORDES WILLIAM R'
p31
(dp32
g3
g6
sg4
I764
sg5
g6
sg7
g6
sg8
g6
sg9
g6
sg10
S'bill.cordes@enron.com'
p33
sg12
g6
sg13
g6
sg14
I1038185
sg15
g6
sg16
I10
sg17
I651850
sg18
I12
sg19
g6
sg20
I0
sg21
I00
sg22
g6
sg23
I58
sg24
I386335
sg25
g6
ssS'HANNON KEVIN P'
p34
(dp35
g3
I243293
sg4
I1045
sg5
g6
sg7
I288682
sg8
g6
sg9
I1500000
sg10
S'kevin.hannon@enron.com'
p36
sg12
g6
sg13
I-3117011
sg14
I6391065
sg15
I34039
sg16
I32
sg17
I5538001
sg18
I32
sg19
I11350
sg20
I21
sg21
I01
sg22
I1617011
sg23
I1035
sg24
I853064
sg25
g6
ssS'MORDAUNT KRISTINA M'
p37
(dp38
g3
I267093
sg4
g6
sg5
g6
sg7
I628522
sg8
g6
sg9
I325000
sg10
S'kristina.mordaunt@enron.com'
p39
sg12
g6
sg13
g6
sg14
I208510
sg15
I35018
sg16
g6
sg17
g6
sg18
g6
sg19
I1411
sg20
g6
sg21
I00
sg22
g6
sg23
g6
sg24
I208510
sg25
g6
ssS'MEYER ROCKFORD G'
p40
(dp41
g3
g6
sg4
I232
sg5
I1848227
sg7
I1848227
sg8
g6
sg9
g6
sg10
S'rockford.meyer@enron.com'
p42
sg12
g6
sg13
g6
sg14
I955873
sg15
g6
sg16
I0
sg17
I493489
sg18
I28
sg19
g6
sg20
I0
sg21
I00
sg22
g6
sg23
I22
sg24
I462384
sg25
g6
ssS'MCMAHON JEFFREY'
p43
(dp44
g3
I370448
sg4
I2355
sg5
g6
sg7
I4099771
sg8
g6
sg9
I2600000
sg10
S'jeffrey.mcmahon@enron.com'
p45
sg12
g6
sg13
g6
sg14
I1662855
sg15
I137108
sg16
I58
sg17
I1104054
sg18
I48
sg19
I297353
sg20
I26
sg21
I00
sg22
I694862
sg23
I2228
sg24
I558801
sg25
g6
ssS'HAEDICKE MARK E'
p46
(dp47
g3
I374125
sg4
I4009
sg5
I2157527
sg7
I3859065
sg8
g6
sg9
I1150000
sg10
S'mark.haedicke@enron.com'
p48
sg12
I-329825
sg13
I-934484
sg14
I803094
sg15
I76169
sg16
I180
sg17
I608750
sg18
I1941
sg19
I52382
sg20
I61
sg21
I00
sg22
I983346
sg23
I1847
sg24
I524169
sg25
g6
ssS'PIPER GREGORY F'
p49
(dp50
g3
I197091
sg4
I1238
sg5
I1130036
sg7
I1737629
sg8
g6
sg9
I400000
sg10
S'greg.piper@enron.com'
p51
sg12
I-409554
sg13
I-33333
sg14
I880290
sg15
I43057
sg16
I61
sg17
I880290
sg18
I222
sg19
I778
sg20
I48
sg21
I00
sg22
g6
sg23
I742
sg24
I409554
sg25
g6
ssS'HUMPHREY GENE E'
p52
(dp53
g3
I130724
sg4
I128
sg5
I2964506
sg7
I3100224
sg8
g6
sg9
g6
sg10
S'gene.humphrey@enron.com'
p54
sg12
g6
sg13
g6
sg14
I2282768
sg15
I4994
sg16
I10
sg17
I2282768
sg18
I17
sg19
g6
sg20
I17
sg21
I00
sg22
g6
sg23
I119
sg24
g6
sg25
g6
ssS'NOLES JAMES L'
p55
(dp56
g3
g6
sg4
g6
sg5
I774401
sg7
I774401
sg8
g6
sg9
g6
sg10
g6
sg12
I-94556
sg13
g6
sg14
I368705
sg15
g6
sg16
g6
sg17
g6
sg18
g6
sg19
g6
sg20
g6
sg21
I00
sg22
g6
sg23
g6
sg24
I463261
sg25
g6
ssS'BLACHMAN JEREMY M'
p57
(dp58
g3
I248546
sg4
I2475
sg5
g6
sg7
I2014835
sg8
g6
sg9
I850000
sg10
S'jeremy.blachman@enron.com'
p59
sg12
g6
sg13
g6
sg14
I954354
sg15
I84208
sg16
I25
sg17
I765313
sg18
I14
sg19
I272
sg20
I2
sg21
I00
sg22
I831809
sg23
I2326
sg24
I189041
sg25
g6
ssS'SUNDE MARTIN'
p60
(dp61
g3
I257486
sg4
I2647
sg5
g6
sg7
I1545059
sg8
g6
sg9
I700000
sg10
S'marty.sunde@enron.com'
p62
sg12
g6
sg13
g6
sg14
I698920
sg15
g6
sg16
I37
sg17
g6
sg18
I38
sg19
I111122
sg20
I13
sg21
I00
sg22
I476451
sg23
I2565
sg24
I698920
sg25
g6
ssS'GIBBS DANA R'
p63
(dp64
g3
g6
sg4
I169
sg5
I504610
sg7
I966522
sg8
g6
sg9
g6
sg10
S'dana.gibbs@enron.com'
p65
sg12
g6
sg13
g6
sg14
I2218275
sg15
g6
sg16
I0
sg17
I2218275
sg18
I12
sg19
g6
sg20
I0
sg21
I00
sg22
I461912
sg23
I23
sg24
g6
sg25
g6
ssS'LOWRY CHARLES P'
p66
(dp67
g3
g6
sg4
g6
sg5
g6
sg7
g6
sg8
g6
sg9
g6
sg10
g6
sg12
I-153686
sg13
g6
sg14
I372205
sg15
g6
sg16
g6
sg17
I372205
sg18
g6
sg19
g6
sg20
g6
sg21
I00
sg22
g6
sg23
g6
sg24
I153686
sg25
g6
ssS'COLWELL WESLEY'
p68
(dp69
g3
I288542
sg4
I1758
sg5
I27610
sg7
I1490344
sg8
g6
sg9
I1200000
sg10
S'wes.colwell@enron.com'
p70
sg12
g6
sg13
I-144062
sg14
I698242
sg15
I16514
sg16
I240
sg17
g6
sg18
I40
sg19
I101740
sg20
I11
sg21
I01
sg22
g6
sg23
I1132
sg24
I698242
sg25
g6
ssS'MULLER MARK S'
p71
(dp72
g3
I251654
sg4
I136
sg5
I842924
sg7
I3202070
sg8
g6
sg9
I1100000
sg10
S's..muller@enron.com'
p73
sg12
g6
sg13
I-719000
sg14
I1416848
sg15
g6
sg16
I12
sg17
I1056320
sg18
I16
sg19
I947
sg20
I0
sg21
I00
sg22
I1725545
sg23
I114
sg24
I360528
sg25
g6
ssS'JACKSON CHARLENE R'
p74
(dp75
g3
I288558
sg4
I258
sg5
g6
sg7
I551174
sg8
g6
sg9
I250000
sg10
S'charlene.jackson@enron.com'
p76
sg12
g6
sg13
g6
sg14
I725735
sg15
I10181
sg16
I25
sg17
I185063
sg18
I56
sg19
I2435
sg20
I19
sg21
I00
sg22
g6
sg23
I117
sg24
I540672
sg25
g6
ssS'WESTFAHL RICHARD K'
p77
(dp78
g3
I63744
sg4
g6
sg5
g6
sg7
I762135
sg8
g6
sg9
g6
sg10
S'dick.westfahl@enron.com'
p79
sg12
g6
sg13
I-10800
sg14
I384930
sg15
I51870
sg16
g6
sg17
g6
sg18
g6
sg19
I401130
sg20
g6
sg21
I00
sg22
I256191
sg23
g6
sg24
I384930
sg25
g6
ssS'WALTERS GARETH W'
p80
(dp81
g3
g6
sg4
g6
sg5
I53625
sg7
I87410
sg8
g6
sg9
g6
sg10
g6
sg12
g6
sg13
g6
sg14
I1030329
sg15
I33785
sg16
g6
sg17
I1030329
sg18
g6
sg19
g6
sg20
g6
sg21
I00
sg22
g6
sg23
g6
sg24
g6
sg25
g6
ssS'WALLS JR ROBERT H'
p82
(dp83
g3
I357091
sg4
I671
sg5
g6
sg7
I1798780
sg8
g6
sg9
I850000
sg10
S'rob.walls@enron.com'
p84
sg12
g6
sg13
g6
sg14
I5898997
sg15
I50936
sg16
I17
sg17
I4346544
sg18
I146
sg19
I2
sg20
I0
sg21
I00
sg22
I540751
sg23
I215
sg24
I1552453
sg25
g6
ssS'KITCHEN LOUISE'
p85
(dp86
g3
I271442
sg4
I8305
sg5
g6
sg7
I3471141
sg8
g6
sg9
I3100000
sg10
S'louise.kitchen@enron.com'
p87
sg12
g6
sg13
g6
sg14
I547143
sg15
I5774
sg16
I251
sg17
I81042
sg18
I1728
sg19
I93925
sg20
I194
sg21
I00
sg22
g6
sg23
I3669
sg24
I466101
sg25
g6
ssS'CHAN RONNIE'
p88
(dp89
g3
g6
sg4
g6
sg5
g6
sg7
g6
sg8
g6
sg9
g6
sg10
g6
sg12
I-32460
sg13
I-98784
sg14
g6
sg15
g6
sg16
g6
sg17
g6
sg18
g6
sg19
g6
sg20
g6
sg21
I00
sg22
g6
sg23
g6
sg24
I32460
sg25
I98784
ssS'BELFER ROBERT'
p90
(dp91
g3
g6
sg4
g6
sg5
I-102500
sg7
I102500
sg8
g6
sg9
g6
sg10
g6
sg12
I44093
sg13
g6
sg14
I-44093
sg15
g6
sg16
g6
sg17
I3285
sg18
g6
sg19
g6
sg20
g6
sg21
I00
sg22
g6
sg23
g6
sg24
g6
sg25
I3285
ssS'SHANKMAN JEFFREY A'
p92
(dp93
g3
I304110
sg4
I3221
sg5
g6
sg7
I3038702
sg8
g6
sg9
I2000000
sg10
S'jeffrey.shankman@enron.com'
p94
sg12
g6
sg13
g6
sg14
I2072035
sg15
I178979
sg16
I94
sg17
I1441898
sg18
I2681
sg19
I1191
sg20
I83
sg21
I00
sg22
I554422
sg23
I1730
sg24
I630137
sg25
g6
ssS'WODRASKA JOHN'
p95
(dp96
g3
g6
sg4
g6
sg5
g6
sg7
I189583
sg8
g6
sg9
g6
sg10
S'john.wodraska@enron.com'
p97
sg12
g6
sg13
g6
sg14
g6
sg15
g6
sg16
g6
sg17
g6
sg18
g6
sg19
I189583
sg20
g6
sg21
I00
sg22
g6
sg23
g6
sg24
g6
sg25
g6
ssS'BERGSIEKER RICHARD P'
p98
(dp99
g3
I187922
sg4
I383
sg5
g6
sg7
I618850
sg8
g6
sg9
I250000
sg10
S'rick.bergsieker@enron.com'
p100
sg12
g6
sg13
I-485813
sg14
I659249
sg15
I59175
sg16
I4
sg17
g6
sg18
I59
sg19
I427316
sg20
I0
sg21
I00
sg22
I180250
sg23
I233
sg24
I659249
sg25
g6
ssS'URQUHART JOHN A'
p101
(dp102
g3
g6
sg4
g6
sg5
g6
sg7
I228656
sg8
g6
sg9
g6
sg10
g6
sg12
g6
sg13
I-36666
sg14
g6
sg15
I228656
sg16
g6
sg17
g6
sg18
g6
sg19
g6
sg20
g6
sg21
I00
sg22
g6
sg23
g6
sg24
g6
sg25
I36666
ssS'BIBI PHILIPPE A'
p103
(dp104
g3
I213625
sg4
I1607
sg5
g6
sg7
I2047593
sg8
g6
sg9
I1000000
sg10
S'philippe.bibi@enron.com'
p105
sg12
g6
sg13
g6
sg14
I1843816
sg15
I38559
sg16
I23
sg17
I1465734
sg18
I40
sg19
I425688
sg20
I8
sg21
I00
sg22
I369721
sg23
I1336
sg24
I378082
sg25
g6
ssS'RIEKER PAULA H'
p106
(dp107
g3
I249201
sg4
I1328
sg5
I214678
sg7
I1099100
sg8
g6
sg9
I700000
sg10
S'paula.rieker@enron.com'
p108
sg12
g6
sg13
I-100000
sg14
I1918887
sg15
I33271
sg16
I35
sg17
I1635238
sg18
I82
sg19
I1950
sg20
I48
sg21
I01
sg22
g6
sg23
I1258
sg24
I283649
sg25
g6
ssS'WHALEY DAVID A'
p109
(dp110
g3
g6
sg4
g6
sg5
g6
sg7
g6
sg8
g6
sg9
g6
sg10
g6
sg12
g6
sg13
g6
sg14
I98718
sg15
g6
sg16
g6
sg17
I98718
sg18
g6
sg19
g6
sg20
g6
sg21
I00
sg22
g6
sg23
g6
sg24
g6
sg25
g6
ssS'BECK SALLY W'
p111
(dp112
g3
I231330
sg4
I7315
sg5
g6
sg7
I969068
sg8
g6
sg9
I700000
sg10
S'sally.beck@enron.com'
p113
sg12
g6
sg13
g6
sg14
I126027
sg15
I37172
sg16
I144
sg17
g6
sg18
I4343
sg19
I566
sg20
I386
sg21
I00
sg22
g6
sg23
I2639
sg24
I126027
sg25
g6
ssS'HAUG DAVID L'
p114
(dp115
g3
g6
sg4
I573
sg5
g6
sg7
I475
sg8
g6
sg9
g6
sg10
S'david.haug@enron.com'
p116
sg12
g6
sg13
g6
sg14
I2217299
sg15
I475
sg16
I4
sg17
g6
sg18
I19
sg19
g6
sg20
I7
sg21
I00
sg22
g6
sg23
I471
sg24
I2217299
sg25
g6
ssS'ECHOLS JOHN B'
p117
(dp118
g3
I182245
sg4
g6
sg5
g6
sg7
I2692324
sg8
g6
sg9
I200000
sg10
S'john.echols@enron.com'
p119
sg12
g6
sg13
g6
sg14
I1008941
sg15
I21530
sg16
g6
sg17
I601438
sg18
g6
sg19
I53775
sg20
g6
sg21
I00
sg22
I2234774
sg23
g6
sg24
I407503
sg25
g6
ssS'MENDELSOHN JOHN'
p120
(dp121
g3
g6
sg4
g6
sg5
g6
sg7
I148
sg8
g6
sg9
g6
sg10
g6
sg12
g6
sg13
I-103750
sg14
g6
sg15
I148
sg16
g6
sg17
g6
sg18
g6
sg19
g6
sg20
g6
sg21
I00
sg22
g6
sg23
g6
sg24
g6
sg25
I103750
ssS'HICKERSON GARY J'
p122
(dp123
g3
I211788
sg4
I1320
sg5
g6
sg7
I2081796
sg8
g6
sg9
I1700000
sg10
S'gary.hickerson@enron.com'
p124
sg12
g6
sg13
g6
sg14
I441096
sg15
I98849
sg16
I40
sg17
g6
sg18
I27
sg19
I1936
sg20
I1
sg21
I00
sg22
I69223
sg23
I900
sg24
I441096
sg25
g6
ssS'CLINE KENNETH W'
p125
(dp126
g3
g6
sg4
g6
sg5
g6
sg7
g6
sg8
g6
sg9
g6
sg10
g6
sg12
I-472568
sg13
g6
sg14
I189518
sg15
g6
sg16
g6
sg17
g6
sg18
g6
sg19
g6
sg20
g6
sg21
I00
sg22
g6
sg23
g6
sg24
I662086
sg25
g6
ssS'LEWIS RICHARD'
p127
(dp128
g3
g6
sg4
I952
sg5
g6
sg7
g6
sg8
g6
sg9
g6
sg10
S'richard.lewis@enron.com'
p129
sg12
g6
sg13
g6
sg14
I850477
sg15
g6
sg16
I10
sg17
I850477
sg18
I26
sg19
g6
sg20
I0
sg21
I00
sg22
g6
sg23
I739
sg24
g6
sg25
g6
ssS'HAYES ROBERT E'
p130
(dp131
g3
g6
sg4
I504
sg5
I7961
sg7
I7961
sg8
g6
sg9
g6
sg10
S'robert.hayes@enron.com'
p132
sg12
g6
sg13
g6
sg14
I151418
sg15
g6
sg16
I16
sg17
g6
sg18
I12
sg19
g6
sg20
I0
sg21
I00
sg22
g6
sg23
I50
sg24
I151418
sg25
g6
ssS'KOPPER MICHAEL J'
p133
(dp134
g3
I224305
sg4
g6
sg5
g6
sg7
I2652612
sg8
g6
sg9
I800000
sg10
S'michael.kopper@enron.com'
p135
sg12
g6
sg13
g6
sg14
I985032
sg15
I118134
sg16
g6
sg17
g6
sg18
g6
sg19
I907502
sg20
g6
sg21
I01
sg22
I602671
sg23
g6
sg24
I985032
sg25
g6
ssS'LEFF DANIEL P'
p136
(dp137
g3
I273746
sg4
I2822
sg5
g6
sg7
I2664228
sg8
g6
sg9
I1000000
sg10
S'dan.leff@enron.com'
p138
sg12
g6
sg13
g6
sg14
I360528
sg15
g6
sg16
I67
sg17
g6
sg18
I63
sg19
I3083
sg20
I14
sg21
I00
sg22
I1387399
sg23
I2672
sg24
I360528
sg25
g6
ssS'LAVORATO JOHN J'
p139
(dp140
g3
I339288
sg4
I7259
sg5
g6
sg7
I10425757
sg8
g6
sg9
I8000000
sg10
S'john.lavorato@enron.com'
p141
sg12
g6
sg13
g6
sg14
I5167144
sg15
I49537
sg16
I528
sg17
I4158995
sg18
I2585
sg19
I1552
sg20
I411
sg21
I00
sg22
I2035380
sg23
I3962
sg24
I1008149
sg25
g6
ssS'BERBERIAN DAVID'
p142
(dp143
g3
I216582
sg4
g6
sg5
g6
sg7
I228474
sg8
g6
sg9
g6
sg10
S'david.berberian@enron.com'
p144
sg12
g6
sg13
g6
sg14
I2493616
sg15
I11892
sg16
g6
sg17
I1624396
sg18
g6
sg19
g6
sg20
g6
sg21
I00
sg22
g6
sg23
g6
sg24
I869220
sg25
g6
ssS'DETMERING TIMOTHY J'
p145
(dp146
g3
I210500
sg4
g6
sg5
I875307
sg7
I1204583
sg8
g6
sg9
I425000
sg10
S'timothy.detmering@enron.com'
p147
sg12
I-315068
sg13
I-775241
sg14
I2027865
sg15
I52255
sg16
g6
sg17
I2027865
sg18
g6
sg19
I1105
sg20
g6
sg21
I00
sg22
I415657
sg23
g6
sg24
I315068
sg25
g6
ssS'WAKEHAM JOHN'
p148
(dp149
g3
g6
sg4
g6
sg5
g6
sg7
I213071
sg8
g6
sg9
g6
sg10
g6
sg12
g6
sg13
g6
sg14
g6
sg15
I103773
sg16
g6
sg17
g6
sg18
g6
sg19
g6
sg20
g6
sg21
I00
sg22
g6
sg23
g6
sg24
g6
sg25
I109298
ssS'POWERS WILLIAM'
p150
(dp151
g3
g6
sg4
I653
sg5
g6
sg7
g6
sg8
g6
sg9
g6
sg10
S'ken.powers@enron.com'
p152
sg12
g6
sg13
I-17500
sg14
g6
sg15
g6
sg16
I0
sg17
g6
sg18
I26
sg19
g6
sg20
I0
sg21
I00
sg22
g6
sg23
I12
sg24
g6
sg25
I17500
ssS'GOLD JOSEPH'
p153
(dp154
g3
I272880
sg4
g6
sg5
g6
sg7
I2146973
sg8
g6
sg9
I750000
sg10
S'joe.gold@enron.com'
p155
sg12
g6
sg13
g6
sg14
I877611
sg15
g6
sg16
g6
sg17
I436515
sg18
g6
sg19
I819288
sg20
g6
sg21
I00
sg22
I304805
sg23
g6
sg24
I441096
sg25
g6
ssS'BANNANTINE JAMES M'
p156
(dp157
g3
I477
sg4
I566
sg5
g6
sg7
I916197
sg8
g6
sg9
g6
sg10
S'james.bannantine@enron.com'
p158
sg12
I-560222
sg13
I-5104
sg14
I5243487
sg15
I56301
sg16
I39
sg17
I4046157
sg18
I29
sg19
I864523
sg20
I0
sg21
I00
sg22
g6
sg23
I465
sg24
I1757552
sg25
g6
ssS'DUNCAN JOHN H'
p159
(dp160
g3
g6
sg4
g6
sg5
g6
sg7
I77492
sg8
g6
sg9
g6
sg10
g6
sg12
g6
sg13
I-25000
sg14
I371750
sg15
g6
sg16
g6
sg17
I371750
sg18
g6
sg19
g6
sg20
g6
sg21
I00
sg22
g6
sg23
g6
sg24
g6
sg25
I102492
ssS'SHAPIRO RICHARD S'
p161
(dp162
g3
I269076
sg4
I15149
sg5
g6
sg7
I1057548
sg8
g6
sg9
I650000
sg10
S'richard.shapiro@enron.com'
p163
sg12
g6
sg13
g6
sg14
I987001
sg15
I137767
sg16
I74
sg17
I607837
sg18
I1215
sg19
I705
sg20
I65
sg21
I00
sg22
g6
sg23
I4527
sg24
I379164
sg25
g6
ssS'SHERRIFF JOHN R'
p164
(dp165
g3
I428780
sg4
I3187
sg5
g6
sg7
I4335388
sg8
g6
sg9
I1500000
sg10
S'john.sherriff@enron.com'
p166
sg12
g6
sg13
g6
sg14
I3128982
sg15
g6
sg16
I28
sg17
I1835558
sg18
I92
sg19
I1852186
sg20
I23
sg21
I00
sg22
I554422
sg23
I2103
sg24
I1293424
sg25
g6
ssS'SHELBY REX'
p167
(dp168
g3
I211844
sg4
I225
sg5
g6
sg7
I2003885
sg8
g6
sg9
I200000
sg10
S'rex.shelby@enron.com'
p169
sg12
g6
sg13
I-4167
sg14
I2493616
sg15
I22884
sg16
I13
sg17
I1624396
sg18
I39
sg19
I1573324
sg20
I14
sg21
I01
sg22
g6
sg23
I91
sg24
I869220
sg25
g6
ssS'LEMAISTRE CHARLES'
p170
(dp171
g3
g6
sg4
g6
sg5
g6
sg7
I87492
sg8
g6
sg9
g6
sg10
g6
sg12
g6
sg13
I-25000
sg14
I412878
sg15
g6
sg16
g6
sg17
I412878
sg18
g6
sg19
g6
sg20
g6
sg21
I00
sg22
g6
sg23
g6
sg24
g6
sg25
I112492
ssS'DEFFNER JOSEPH M'
p172
(dp173
g3
I206121
sg4
I714
sg5
g6
sg7
I1208649
sg8
g6
sg9
I600000
sg10
S'joseph.deffner@enron.com'
p174
sg12
g6
sg13
g6
sg14
I159211
sg15
I41626
sg16
I115
sg17
I17378
sg18
I74
sg19
I25553
sg20
I4
sg21
I00
sg22
I335349
sg23
I552
sg24
I141833
sg25
g6
ssS'KISHKILL JOSEPH G'
p175
(dp176
g3
I174246
sg4
g6
sg5
g6
sg7
I704896
sg8
g6
sg9
g6
sg10
S'joe.kishkill@enron.com'
p177
sg12
g6
sg13
I-51042
sg14
I1034346
sg15
I116335
sg16
g6
sg17
g6
sg18
g6
sg19
I465357
sg20
g6
sg21
I00
sg22
g6
sg23
g6
sg24
I1034346
sg25
g6
ssS'WHALLEY LAWRENCE G'
p178
(dp179
g3
I510364
sg4
I6019
sg5
g6
sg7
I4677574
sg8
g6
sg9
I3000000
sg10
S'greg.whalley@enron.com'
p180
sg12
g6
sg13
g6
sg14
I6079137
sg15
I57838
sg16
I186
sg17
I3282960
sg18
I556
sg19
I301026
sg20
I24
sg21
I00
sg22
I808346
sg23
I3920
sg24
I2796177
sg25
g6
ssS'MCCONNELL MICHAEL S'
p181
(dp182
g3
I365038
sg4
I3329
sg5
g6
sg7
I2101364
sg8
g6
sg9
I1100000
sg10
S'mike.mcconnell@enron.com'
p183
sg12
g6
sg13
g6
sg14
I3101279
sg15
I81364
sg16
I92
sg17
I1623010
sg18
I2742
sg19
I540
sg20
I194
sg21
I00
sg22
I554422
sg23
I2189
sg24
I1478269
sg25
g6
ssS'PIRO JIM'
p184
(dp185
g3
g6
sg4
I58
sg5
g6
sg7
g6
sg8
g6
sg9
g6
sg10
S'jim.piro@enron.com'
p186
sg12
g6
sg13
g6
sg14
I47304
sg15
g6
sg16
I0
sg17
g6
sg18
I16
sg19
g6
sg20
I1
sg21
I00
sg22
g6
sg23
I3
sg24
I47304
sg25
g6
ssS'DELAINEY DAVID W'
p187
(dp188
g3
I365163
sg4
I3093
sg5
g6
sg7
I4747979
sg8
g6
sg9
I3000000
sg10
S'david.delainey@enron.com'
p189
sg12
g6
sg13
g6
sg14
I3614261
sg15
I86174
sg16
I66
sg17
I2291113
sg18
I3069
sg19
I1661
sg20
I609
sg21
I01
sg22
I1294981
sg23
I2097
sg24
I1323148
sg25
g6
ssS'SULLIVAN-SHAKLOVITZ COLLEEN'
p190
(dp191
g3
I162779
sg4
g6
sg5
I181993
sg7
I999356
sg8
g6
sg9
I100000
sg10
g6
sg12
g6
sg13
g6
sg14
I1362375
sg15
g6
sg16
g6
sg17
I1362375
sg18
g6
sg19
I162
sg20
g6
sg21
I00
sg22
I554422
sg23
g6
sg24
g6
sg25
g6
ssS'WROBEL BRUCE'
p192
(dp193
g3
g6
sg4
g6
sg5
g6
sg7
g6
sg8
g6
sg9
g6
sg10
g6
sg12
g6
sg13
g6
sg14
I139130
sg15
g6
sg16
g6
sg17
I139130
sg18
g6
sg19
g6
sg20
g6
sg21
I00
sg22
g6
sg23
g6
sg24
g6
sg25
g6
ssS'LINDHOLM TOD A'
p194
(dp195
g3
I236457
sg4
g6
sg5
I204075
sg7
I875889
sg8
g6
sg9
I200000
sg10
S'tod.lindholm@enron.com'
p196
sg12
g6
sg13
g6
sg14
I3064208
sg15
I57727
sg16
g6
sg17
I2549361
sg18
g6
sg19
I2630
sg20
g6
sg21
I00
sg22
I175000
sg23
g6
sg24
I514847
sg25
g6
ssS'MEYER JEROME J'
p197
(dp198
g3
g6
sg4
g6
sg5
g6
sg7
I2151
sg8
g6
sg9
g6
sg10
g6
sg12
g6
sg13
I-38346
sg14
g6
sg15
I2151
sg16
g6
sg17
g6
sg18
g6
sg19
g6
sg20
g6
sg21
I00
sg22
g6
sg23
g6
sg24
g6
sg25
I38346
ssS'LAY KENNETH L'
p199
(dp200
g3
I1072321
sg4
I4273
sg5
I202911
sg7
I103559793
sg8
I81525000
sg9
I7000000
sg10
S'kenneth.lay@enron.com'
p201
sg12
g6
sg13
I-300000
sg14
I49110078
sg15
I99832
sg16
I123
sg17
I34348384
sg18
I36
sg19
I10359729
sg20
I16
sg21
I01
sg22
I3600000
sg23
I2411
sg24
I14761694
sg25
g6
ssS'BUTTS ROBERT H'
p202
(dp203
g3
I261516
sg4
g6
sg5
g6
sg7
I1271582
sg8
g6
sg9
I750000
sg10
S'bob.butts@enron.com'
p204
sg12
g6
sg13
I-75000
sg14
I417619
sg15
I9410
sg16
g6
sg17
g6
sg18
g6
sg19
I150656
sg20
g6
sg21
I00
sg22
I175000
sg23
g6
sg24
I417619
sg25
g6
ssS'OLSON CINDY K'
p205
(dp206
g3
I329078
sg4
I1184
sg5
I77716
sg7
I1321557
sg8
g6
sg9
I750000
sg10
S'cindy.olson@enron.com'
p207
sg12
g6
sg13
g6
sg14
I2606763
sg15
I63791
sg16
I20
sg17
I1637034
sg18
I52
sg19
I972
sg20
I15
sg21
I00
sg22
I100000
sg23
I856
sg24
I969729
sg25
g6
ssS'MCDONALD REBECCA'
p208
(dp209
g3
g6
sg4
I894
sg5
g6
sg7
g6
sg8
g6
sg9
g6
sg10
S'rebecca.mcdonald@enron.com'
p210
sg12
g6
sg13
g6
sg14
I1691366
sg15
g6
sg16
I54
sg17
I757301
sg18
I13
sg19
g6
sg20
I1
sg21
I00
sg22
g6
sg23
I720
sg24
I934065
sg25
g6
ssS'CUMBERLAND MICHAEL S'
p211
(dp212
g3
I184899
sg4
g6
sg5
g6
sg7
I807956
sg8
g6
sg9
I325000
sg10
g6
sg12
g6
sg13
g6
sg14
I207940
sg15
I22344
sg16
g6
sg17
g6
sg18
g6
sg19
I713
sg20
g6
sg21
I00
sg22
I275000
sg23
g6
sg24
I207940
sg25
g6
ssS'GAHN ROBERT S'
p213
(dp214
g3
I192008
sg4
g6
sg5
I73122
sg7
I900585
sg8
g6
sg9
I509870
sg10
g6
sg12
g6
sg13
I-1042
sg14
I318607
sg15
I50080
sg16
g6
sg17
I83237
sg18
g6
sg19
I76547
sg20
g6
sg21
I00
sg22
g6
sg23
g6
sg24
I235370
sg25
g6
ssS'BADUM JAMES P'
p215
(dp216
g3
g6
sg4
g6
sg5
I178980
sg7
I182466
sg8
g6
sg9
g6
sg10
g6
sg12
g6
sg13
g6
sg14
I257817
sg15
I3486
sg16
g6
sg17
I257817
sg18
g6
sg19
g6
sg20
g6
sg21
I00
sg22
g6
sg23
g6
sg24
g6
sg25
g6
ssS'HERMANN ROBERT J'
p217
(dp218
g3
I262663
sg4
g6
sg5
g6
sg7
I1297461
sg8
g6
sg9
I700000
sg10
S'robert.hermann@enron.com'
p219
sg12
g6
sg13
I-280000
sg14
I668132
sg15
I48357
sg16
g6
sg17
I187500
sg18
g6
sg19
I416441
sg20
g6
sg21
I00
sg22
I150000
sg23
g6
sg24
I480632
sg25
g6
ssS'FALLON JAMES B'
p220
(dp221
g3
I304588
sg4
I1755
sg5
g6
sg7
I3676340
sg8
g6
sg9
I2500000
sg10
S'jim.fallon@enron.com'
p222
sg12
g6
sg13
g6
sg14
I2332399
sg15
I95924
sg16
I42
sg17
I940257
sg18
I75
sg19
I401481
sg20
I37
sg21
I00
sg22
I374347
sg23
I1604
sg24
I1392142
sg25
g6
ssS'GATHMANN WILLIAM D'
p223
(dp224
g3
g6
sg4
g6
sg5
g6
sg7
g6
sg8
g6
sg9
g6
sg10
g6
sg12
I-72419
sg13
g6
sg14
I1945360
sg15
g6
sg16
g6
sg17
I1753766
sg18
g6
sg19
g6
sg20
g6
sg21
I00
sg22
g6
sg23
g6
sg24
I264013
sg25
g6
ssS'HORTON STANLEY C'
p225
(dp226
g3
g6
sg4
I2350
sg5
I3131860
sg7
I3131860
sg8
g6
sg9
g6
sg10
S'stanley.horton@enron.com'
p227
sg12
g6
sg13
g6
sg14
I7256648
sg15
g6
sg16
I44
sg17
I5210569
sg18
I1073
sg19
g6
sg20
I15
sg21
I00
sg22
g6
sg23
I1074
sg24
I2046079
sg25
g6
ssS'BOWEN JR RAYMOND M'
p228
(dp229
g3
I278601
sg4
I1858
sg5
g6
sg7
I2669589
sg8
g6
sg9
I1350000
sg10
S'raymond.bowen@enron.com'
p230
sg12
g6
sg13
I-833
sg14
I252055
sg15
I65907
sg16
I140
sg17
g6
sg18
I27
sg19
I1621
sg20
I15
sg21
I01
sg22
I974293
sg23
I1593
sg24
I252055
sg25
g6
ssS'GILLIS JOHN'
p231
(dp232
g3
g6
sg4
g6
sg5
g6
sg7
g6
sg8
g6
sg9
g6
sg10
g6
sg12
g6
sg13
g6
sg14
I85641
sg15
g6
sg16
g6
sg17
I9803
sg18
g6
sg19
g6
sg20
g6
sg21
I00
sg22
g6
sg23
g6
sg24
I75838
sg25
g6
ssS'FITZGERALD JAY L'
p233
(dp234
g3
I199157
sg4
I936
sg5
g6
sg7
I1414857
sg8
g6
sg9
I350000
sg10
S'jay.fitzgerald@enron.com'
p235
sg12
g6
sg13
g6
sg14
I1621236
sg15
I23870
sg16
I1
sg17
I664461
sg18
I16
sg19
I285414
sg20
I8
sg21
I00
sg22
I556416
sg23
I723
sg24
I956775
sg25
g6
ssS'MORAN MICHAEL P'
p236
(dp237
g3
g6
sg4
I672
sg5
g6
sg7
g6
sg8
g6
sg9
g6
sg10
S'michael.moran@enron.com'
p238
sg12
g6
sg13
g6
sg14
I221141
sg15
g6
sg16
I0
sg17
I59539
sg18
I19
sg19
g6
sg20
I0
sg21
I00
sg22
g6
sg23
I127
sg24
I161602
sg25
g6
ssS'REDMOND BRIAN L'
p239
(dp240
g3
I96840
sg4
I1671
sg5
g6
sg7
I111529
sg8
g6
sg9
g6
sg10
S'brian.redmond@enron.com'
p241
sg12
g6
sg13
g6
sg14
I7890324
sg15
I14689
sg16
I204
sg17
I7509039
sg18
I221
sg19
g6
sg20
I49
sg21
I00
sg22
g6
sg23
I1063
sg24
I381285
sg25
g6
ssS'BAZELIDES PHILIP J'
p242
(dp243
g3
I80818
sg4
g6
sg5
I684694
sg7
I860136
sg8
g6
sg9
g6
sg10
g6
sg12
g6
sg13
g6
sg14
I1599641
sg15
g6
sg16
g6
sg17
I1599641
sg18
g6
sg19
I874
sg20
g6
sg21
I00
sg22
I93750
sg23
g6
sg24
g6
sg25
g6
ssS'BELDEN TIMOTHY N'
p244
(dp245
g3
I213999
sg4
I7991
sg5
I2144013
sg7
I5501630
sg8
g6
sg9
I5249999
sg10
S'tim.belden@enron.com'
p246
sg12
g6
sg13
I-2334434
sg14
I1110705
sg15
I17355
sg16
I228
sg17
I953136
sg18
I484
sg19
I210698
sg20
I108
sg21
I01
sg22
g6
sg23
I5521
sg24
I157569
sg25
g6
ssS'DIMICHELE RICHARD G'
p247
(dp248
g3
I262788
sg4
g6
sg5
g6
sg7
I2368151
sg8
g6
sg9
I1000000
sg10
S'richard.dimichele@enron.com'
p249
sg12
g6
sg13
g6
sg14
I8317782
sg15
I35812
sg16
g6
sg17
I8191755
sg18
g6
sg19
I374689
sg20
g6
sg21
I00
sg22
I694862
sg23
g6
sg24
I126027
sg25
g6
ssS'DURAN WILLIAM D'
p250
(dp251
g3
I210692
sg4
I904
sg5
g6
sg7
I2093263
sg8
g6
sg9
I750000
sg10
S'w.duran@enron.com'
p252
sg12
g6
sg13
g6
sg14
I1640910
sg15
I25785
sg16
I106
sg17
I1451869
sg18
I12
sg19
I1568
sg20
I3
sg21
I00
sg22
I1105218
sg23
I599
sg24
I189041
sg25
g6
ssS'THORN TERENCE H'
p253
(dp254
g3
I222093
sg4
I266
sg5
I16586
sg7
I911453
sg8
g6
sg9
g6
sg10
S'terence.thorn@enron.com'
p255
sg12
g6
sg13
g6
sg14
I4817796
sg15
I46145
sg16
I0
sg17
I4452476
sg18
I41
sg19
I426629
sg20
I0
sg21
I00
sg22
I200000
sg23
I73
sg24
I365320
sg25
g6
ssS'FASTOW ANDREW S'
p256
(dp257
g3
I440698
sg4
g6
sg5
g6
sg7
I2424083
sg8
g6
sg9
I1300000
sg10
S'andrew.fastow@enron.com'
p258
sg12
g6
sg13
I-1386055
sg14
I1794412
sg15
I55921
sg16
g6
sg17
g6
sg18
g6
sg19
I277464
sg20
g6
sg21
I01
sg22
I1736055
sg23
g6
sg24
I1794412
sg25
g6
ssS'FOY JOE'
p259
(dp260
g3
g6
sg4
I57
sg5
I181755
sg7
I181755
sg8
g6
sg9
g6
sg10
S'tracy.foy@enron.com'
p261
sg12
g6
sg13
g6
sg14
I343434
sg15
g6
sg16
I0
sg17
I343434
sg18
I13
sg19
g6
sg20
I0
sg21
I00
sg22
g6
sg23
I2
sg24
g6
sg25
g6
ssS'CALGER CHRISTOPHER F'
p262
(dp263
g3
I240189
sg4
I2598
sg5
g6
sg7
I1639297
sg8
g6
sg9
I1250000
sg10
S'christopher.calger@enron.com'
p264
sg12
g6
sg13
I-262500
sg14
I126027
sg15
I35818
sg16
I199
sg17
g6
sg18
I144
sg19
I486
sg20
I25
sg21
I01
sg22
I375304
sg23
I2188
sg24
I126027
sg25
g6
ssS'RICE KENNETH D'
p265
(dp266
g3
I420636
sg4
I905
sg5
g6
sg7
I505050
sg8
g6
sg9
I1750000
sg10
S'ken.rice@enron.com'
p267
sg12
g6
sg13
I-3504386
sg14
I22542539
sg15
I46950
sg16
I42
sg17
I19794175
sg18
I18
sg19
I174839
sg20
I4
sg21
I01
sg22
I1617011
sg23
I864
sg24
I2748364
sg25
g6
ssS'KAMINSKI WINCENTY J'
p268
(dp269
g3
I275101
sg4
I4607
sg5
g6
sg7
I1086821
sg8
g6
sg9
I400000
sg10
S'vince.kaminski@enron.com'
p270
sg12
g6
sg13
g6
sg14
I976037
sg15
I83585
sg16
I41
sg17
I850010
sg18
I14368
sg19
I4669
sg20
I171
sg21
I00
sg22
I323466
sg23
I583
sg24
I126027
sg25
g6
ssS'LOCKHART EUGENE E'
p271
(dp272
g3
g6
sg4
g6
sg5
g6
sg7
g6
sg8
g6
sg9
g6
sg10
g6
sg12
g6
sg13
g6
sg14
g6
sg15
g6
sg16
g6
sg17
g6
sg18
g6
sg19
g6
sg20
g6
sg21
I00
sg22
g6
sg23
g6
sg24
g6
sg25
g6
ssS'COX DAVID'
p273
(dp274
g3
I314288
sg4
I102
sg5
g6
sg7
I1101393
sg8
g6
sg9
I800000
sg10
S'chip.cox@enron.com'
p275
sg12
g6
sg13
I-41250
sg14
I495633
sg15
I27861
sg16
I0
sg17
I117551
sg18
I33
sg19
I494
sg20
I4
sg21
I00
sg22
g6
sg23
I71
sg24
I378082
sg25
g6
ssS'OVERDYKE JR JERE C'
p276
(dp277
g3
I94941
sg4
g6
sg5
g6
sg7
I249787
sg8
g6
sg9
g6
sg10
S'jere.overdyke@enron.com'
p278
sg12
g6
sg13
g6
sg14
I7307594
sg15
I18834
sg16
g6
sg17
I5266578
sg18
g6
sg19
I176
sg20
g6
sg21
I00
sg22
I135836
sg23
g6
sg24
I2041016
sg25
g6
ssS'PEREIRA PAULO V. FERRAZ'
p279
(dp280
g3
g6
sg4
g6
sg5
g6
sg7
I27942
sg8
g6
sg9
g6
sg10
g6
sg12
g6
sg13
I-101250
sg14
g6
sg15
I27942
sg16
g6
sg17
g6
sg18
g6
sg19
g6
sg20
g6
sg21
I00
sg22
g6
sg23
g6
sg24
g6
sg25
I101250
ssS'STABLER FRANK'
p281
(dp282
g3
I239502
sg4
g6
sg5
g6
sg7
I1112087
sg8
g6
sg9
I500000
sg10
S'frank.stabler@enron.com'
p283
sg12
g6
sg13
g6
sg14
I511734
sg15
I16514
sg16
g6
sg17
g6
sg18
g6
sg19
I356071
sg20
g6
sg21
I00
sg22
g6
sg23
g6
sg24
I511734
sg25
g6
ssS'SKILLING JEFFREY K'
p284
(dp285
g3
I1111258
sg4
I3627
sg5
g6
sg7
I8682716
sg8
g6
sg9
I5600000
sg10
S'jeff.skilling@enron.com'
p286
sg12
g6
sg13
g6
sg14
I26093672
sg15
I29336
sg16
I88
sg17
I19250000
sg18
I108
sg19
I22122
sg20
I30
sg21
I01
sg22
I1920000
sg23
I2042
sg24
I6843672
sg25
g6
ssS'BLAKE JR. NORMAN P'
p287
(dp288
g3
g6
sg4
g6
sg5
g6
sg7
I1279
sg8
g6
sg9
g6
sg10
g6
sg12
g6
sg13
I-113784
sg14
g6
sg15
I1279
sg16
g6
sg17
g6
sg18
g6
sg19
g6
sg20
g6
sg21
I00
sg22
g6
sg23
g6
sg24
g6
sg25
I113784
ssS'SHERRICK JEFFREY B'
p289
(dp290
g3
g6
sg4
I613
sg5
g6
sg7
g6
sg8
g6
sg9
g6
sg10
S'jeffrey.sherrick@enron.com'
p291
sg12
g6
sg13
g6
sg14
I1832468
sg15
g6
sg16
I39
sg17
I1426469
sg18
I25
sg19
g6
sg20
I18
sg21
I00
sg22
g6
sg23
I583
sg24
I405999
sg25
g6
ssS'PRENTICE JAMES'
p292
(dp293
g3
g6
sg4
g6
sg5
I564348
sg7
I564348
sg8
g6
sg9
g6
sg10
S'james.prentice@enron.com'
p294
sg12
g6
sg13
g6
sg14
I1095040
sg15
g6
sg16
g6
sg17
I886231
sg18
g6
sg19
g6
sg20
g6
sg21
I00
sg22
g6
sg23
g6
sg24
I208809
sg25
g6
ssS'GRAY RODNEY'
p295
(dp296
g3
I6615
sg4
g6
sg5
I93585
sg7
I1146658
sg8
g6
sg9
g6
sg10
g6
sg12
g6
sg13
g6
sg14
g6
sg15
g6
sg16
g6
sg17
g6
sg18
g6
sg19
I680833
sg20
g6
sg21
I00
sg22
I365625
sg23
g6
sg24
g6
sg25
g6
ssS'THE TRAVEL AGENCY IN THE PARK'
p297
(dp298
g3
g6
sg4
g6
sg5
g6
sg7
I362096
sg8
g6
sg9
g6
sg10
g6
sg12
g6
sg13
g6
sg14
g6
sg15
g6
sg16
g6
sg17
g6
sg18
g6
sg19
I362096
sg20
g6
sg21
I00
sg22
g6
sg23
g6
sg24
g6
sg25
g6
ssS'UMANOFF ADAM S'
p299
(dp300
g3
I288589
sg4
I111
sg5
g6
sg7
I1130461
sg8
g6
sg9
I788750
sg10
S'adam.umanoff@enron.com'
p301
sg12
g6
sg13
g6
sg14
g6
sg15
I53122
sg16
I12
sg17
g6
sg18
I18
sg19
g6
sg20
I0
sg21
I00
sg22
g6
sg23
I41
sg24
g6
sg25
g6
ssS'KEAN STEVEN J'
p302
(dp303
g3
I404338
sg4
I12754
sg5
g6
sg7
I1747522
sg8
g6
sg9
I1000000
sg10
S'steven.kean@enron.com'
p304
sg12
g6
sg13
g6
sg14
I6153642
sg15
I41953
sg16
I140
sg17
I2022048
sg18
I6759
sg19
I1231
sg20
I387
sg21
I00
sg22
I300000
sg23
I3639
sg24
I4131594
sg25
g6
ssS'TOTAL'
p305
(dp306
g3
I26704229
sg4
g6
sg5
I32083396
sg7
I309886585
sg8
I83925000
sg9
I97343619
sg10
g6
sg12
I-7576788
sg13
I-27992891
sg14
I434509511
sg15
I5235198
sg16
g6
sg17
I311764000
sg18
g6
sg19
I42667589
sg20
g6
sg21
I00
sg22
I48521928
sg23
g6
sg24
I130322299
sg25
I1398517
ssS'FOWLER PEGGY'
p307
(dp308
g3
g6
sg4
I517
sg5
g6
sg7
g6
sg8
g6
sg9
g6
sg10
S'kulvinder.fowler@enron.com'
p309
sg12
g6
sg13
g6
sg14
I1884748
sg15
g6
sg16
I0
sg17
I1324578
sg18
I36
sg19
g6
sg20
I0
sg21
I00
sg22
g6
sg23
I10
sg24
I560170
sg25
g6
ssS'WASAFF GEORGE'
p310
(dp311
g3
I259996
sg4
I400
sg5
I831299
sg7
I1034395
sg8
g6
sg9
I325000
sg10
S'george.wasaff@enron.com'
p312
sg12
g6
sg13
I-583325
sg14
I2056427
sg15
g6
sg16
I22
sg17
I1668260
sg18
I30
sg19
I1425
sg20
I7
sg21
I00
sg22
I200000
sg23
I337
sg24
I388167
sg25
g6
ssS'WHITE JR THOMAS E'
p313
(dp314
g3
I317543
sg4
g6
sg5
g6
sg7
I1934359
sg8
g6
sg9
I450000
sg10
S'thomas.white@enron.com'
p315
sg12
g6
sg13
g6
sg14
I15144123
sg15
I81353
sg16
g6
sg17
I1297049
sg18
g6
sg19
I1085463
sg20
g6
sg21
I00
sg22
g6
sg23
g6
sg24
I13847074
sg25
g6
ssS'CHRISTODOULOU DIOMEDES'
p316
(dp317
g3
g6
sg4
g6
sg5
g6
sg7
g6
sg8
g6
sg9
g6
sg10
S'diomedes.christodoulou@enron.com'
p318
sg12
g6
sg13
g6
sg14
I6077885
sg15
g6
sg16
g6
sg17
I5127155
sg18
g6
sg19
g6
sg20
g6
sg21
I00
sg22
g6
sg23
g6
sg24
I950730
sg25
g6
ssS'ALLEN PHILLIP K'
p319
(dp320
g3
I201955
sg4
I2902
sg5
I2869717
sg7
I4484442
sg8
g6
sg9
I4175000
sg10
S'phillip.allen@enron.com'
p321
sg12
I-126027
sg13
I-3081055
sg14
I1729541
sg15
I13868
sg16
I47
sg17
I1729541
sg18
I2195
sg19
I152
sg20
I65
sg21
I00
sg22
I304805
sg23
I1407
sg24
I126027
sg25
g6
ssS'SHARP VICTORIA T'
p322
(dp323
g3
I248146
sg4
I3136
sg5
I187469
sg7
I1576511
sg8
g6
sg9
I600000
sg10
S'vicki.sharp@enron.com'
p324
sg12
g6
sg13
g6
sg14
I494136
sg15
I116337
sg16
I24
sg17
I281073
sg18
I136
sg19
I2401
sg20
I6
sg21
I00
sg22
I422158
sg23
I2477
sg24
I213063
sg25
g6
ssS'JAEDICKE ROBERT'
p325
(dp326
g3
g6
sg4
g6
sg5
g6
sg7
I83750
sg8
g6
sg9
g6
sg10
g6
sg12
I-44093
sg13
I-25000
sg14
I431750
sg15
g6
sg16
g6
sg17
I431750
sg18
g6
sg19
g6
sg20
g6
sg21
I00
sg22
g6
sg23
g6
sg24
I44093
sg25
I108750
ssS'WINOKUR JR. HERBERT S'
p327
(dp328
g3
g6
sg4
g6
sg5
g6
sg7
I84992
sg8
g6
sg9
g6
sg10
g6
sg12
g6
sg13
I-25000
sg14
g6
sg15
I1413
sg16
g6
sg17
g6
sg18
g6
sg19
g6
sg20
g6
sg21
I00
sg22
g6
sg23
g6
sg24
g6
sg25
I108579
ssS'BROWN MICHAEL'
p329
(dp330
g3
g6
sg4
I1486
sg5
g6
sg7
I49288
sg8
g6
sg9
g6
sg10
S'michael.brown@enron.com'
p331
sg12
g6
sg13
g6
sg14
g6
sg15
I49288
sg16
I13
sg17
g6
sg18
I41
sg19
g6
sg20
I1
sg21
I00
sg22
g6
sg23
I761
sg24
g6
sg25
g6
ssS'MCCLELLAN GEORGE'
p332
(dp333
g3
I263413
sg4
I1744
sg5
g6
sg7
I1318763
sg8
g6
sg9
I900000
sg10
S'george.mcclellan@enron.com'
p334
sg12
g6
sg13
I-125000
sg14
I947861
sg15
I228763
sg16
I52
sg17
I506765
sg18
I49
sg19
I51587
sg20
I0
sg21
I00
sg22
g6
sg23
I1469
sg24
I441096
sg25
g6
ssS'HUGHES JAMES A'
p335
(dp336
g3
g6
sg4
I719
sg5
g6
sg7
g6
sg8
g6
sg9
g6
sg10
S'james.hughes@enron.com'
p337
sg12
g6
sg13
g6
sg14
I1118394
sg15
g6
sg16
I35
sg17
I754966
sg18
I34
sg19
g6
sg20
I5
sg21
I00
sg22
g6
sg23
I589
sg24
I363428
sg25
g6
ssS'REYNOLDS LAWRENCE'
p338
(dp339
g3
I76399
sg4
g6
sg5
I51365
sg7
I394475
sg8
g6
sg9
I100000
sg10
g6
sg12
I-140264
sg13
I-200000
sg14
I4221891
sg15
I8409
sg16
g6
sg17
I4160672
sg18
g6
sg19
I202052
sg20
g6
sg21
I00
sg22
I156250
sg23
g6
sg24
I201483
sg25
g6
ssS'PICKERING MARK R'
p340
(dp341
g3
I655037
sg4
I898
sg5
g6
sg7
I1386690
sg8
I400000
sg9
I300000
sg10
S'mark.pickering@enron.com'
p342
sg12
g6
sg13
g6
sg14
I28798
sg15
I31653
sg16
I7
sg17
I28798
sg18
I67
sg19
g6
sg20
I0
sg21
I00
sg22
g6
sg23
I728
sg24
g6
sg25
g6
ssS'BHATNAGAR SANJAY'
p343
(dp344
g3
g6
sg4
I523
sS'total_stock_value'
p345
S'NaN'
p346
sg5
g6
sg7
I15456290
sg8
g6
sg9
g6
sg10
S'sanjay.bhatnagar@enron.com'
p347
sg12
I15456290
sg13
g6
sg15
g6
sg16
I0
sg17
I2604490
sg18
I29
sg19
I137864
sg20
I1
sg21
I00
sg22
g6
sg23
I463
sg24
I-2604490
sg25
I137864
ssS'CARTER REBECCA C'
p348
(dp349
g3
I261809
sg4
I312
sg5
g6
sg7
I477557
sg8
g6
sg9
I300000
sg10
S'rebecca.carter@enron.com'
p350
sg12
I-307301
sg13
I-159792
sg14
g6
sg15
g6
sg16
I29
sg17
g6
sg18
I15
sg19
I540
sg20
I7
sg21
I00
sg22
I75000
sg23
I196
sg24
I307301
sg25
g6
ssS'BUCHANAN HAROLD G'
p351
(dp352
g3
I248017
sg4
I1088
sg5
g6
sg7
I1054637
sg8
g6
sg9
I500000
sg10
S'john.buchanan@enron.com'
p353
sg12
g6
sg13
g6
sg14
I1014505
sg15
I600
sg16
I0
sg17
I825464
sg18
I125
sg19
I1215
sg20
I0
sg21
I00
sg22
I304805
sg23
I23
sg24
I189041
sg25
g6
ssS'YEAP SOON'
p354
(dp355
g3
g6
sg4
g6
sg5
g6
sg7
I55097
sg8
g6
sg9
g6
sg10
g6
sg12
g6
sg13
g6
sg14
I192758
sg15
I55097
sg16
g6
sg17
I192758
sg18
g6
sg19
g6
sg20
g6
sg21
I00
sg22
g6
sg23
g6
sg24
g6
sg25
g6
ssS'MURRAY JULIA H'
p356
(dp357
g3
I229284
sg4
I2192
sg5
g6
sg7
I812194
sg8
g6
sg9
I400000
sg10
S'julia.murray@enron.com'
p358
sg12
g6
sg13
g6
sg14
I597461
sg15
I57580
sg16
I11
sg17
I400478
sg18
I45
sg19
I330
sg20
I2
sg21
I00
sg22
I125000
sg23
I395
sg24
I196983
sg25
g6
ssS'GARLAND C KEVIN'
p359
(dp360
g3
I231946
sg4
I209
sg5
g6
sg7
I1566469
sg8
g6
sg9
I850000
sg10
S'kevin.garland@enron.com'
p361
sg12
g6
sg13
g6
sg14
I896153
sg15
I48405
sg16
I10
sg17
I636246
sg18
I44
sg19
I60814
sg20
I27
sg21
I00
sg22
I375304
sg23
I178
sg24
I259907
sg25
g6
ssS'DODSON KEITH'
p362
(dp363
g3
I221003
sg4
I176
sg5
g6
sg7
I319941
sg8
g6
sg9
I70000
sg10
S'keith.dodson@enron.com'
p364
sg12
g6
sg13
g6
sg14
g6
sg15
I28164
sg16
I10
sg17
g6
sg18
I14
sg19
I774
sg20
I3
sg21
I00
sg22
g6
sg23
I114
sg24
g6
sg25
g6
ssS'YEAGER F SCOTT'
p365
(dp366
g3
I158403
sg4
g6
sg5
g6
sg7
I360300
sg8
g6
sg9
g6
sg10
S'scott.yeager@enron.com'
p367
sg12
g6
sg13
g6
sg14
I11884758
sg15
I53947
sg16
g6
sg17
I8308552
sg18
g6
sg19
I147950
sg20
g6
sg21
I01
sg22
g6
sg23
g6
sg24
I3576206
sg25
g6
ssS'HIRKO JOSEPH'
p368
(dp369
g3
g6
sg4
g6
sg5
I10259
sg7
I91093
sg8
g6
sg9
g6
sg10
S'joe.hirko@enron.com'
p370
sg12
g6
sg13
g6
sg14
I30766064
sg15
I77978
sg16
g6
sg17
I30766064
sg18
g6
sg19
I2856
sg20
g6
sg21
I01
sg22
g6
sg23
g6
sg24
g6
sg25
g6
ssS'DIETRICH JANET R'
p371
(dp372
g3
I250100
sg4
I2572
sg5
g6
sg7
I1410464
sg8
g6
sg9
I600000
sg10
S'janet.dietrich@enron.com'
p373
sg12
g6
sg13
g6
sg14
I1865087
sg15
I3475
sg16
I305
sg17
I1550019
sg18
I63
sg19
I473
sg20
I14
sg21
I00
sg22
I556416
sg23
I1902
sg24
I315068
sg25
g6
ssS'DERRICK JR. JAMES V'
p374
(dp375
g3
I492375
sg4
I2181
sg5
g6
sg7
I550981
sg8
g6
sg9
I800000
sg10
S'james.derrick@enron.com'
p376
sg12
I-1787380
sg13
I-1284000
sg14
I8831913
sg15
I51124
sg16
I64
sg17
I8831913
sg18
I909
sg19
I7482
sg20
I20
sg21
I00
sg22
I484000
sg23
I1401
sg24
I1787380
sg25
g6
ssS'FREVERT MARK A'
p377
(dp378
g3
I1060932
sg4
I3275
sg5
I6426990
sg7
I17252530
sg8
I2000000
sg9
I2000000
sg10
S'mark.frevert@enron.com'
p379
sg12
g6
sg13
I-3367011
sg14
I14622185
sg15
I86987
sg16
I242
sg17
I10433518
sg18
I21
sg19
I7427621
sg20
I6
sg21
I00
sg22
I1617011
sg23
I2979
sg24
I4188667
sg25
g6
ssS'PAI LOU L'
p380
(dp381
g3
I261879
sg4
g6
sg5
g6
sg7
I3123383
sg8
g6
sg9
I1000000
sg10
S'lou.pai@enron.com'
p382
sg12
g6
sg13
g6
sg14
I23817930
sg15
I32047
sg16
g6
sg17
I15364167
sg18
g6
sg19
I1829457
sg20
g6
sg21
I00
sg22
g6
sg23
g6
sg24
I8453763
sg25
g6
ssS'HAYSLETT RODERICK J'
p383
(dp384
g3
g6
sg4
I2649
sg5
g6
sg7
g6
sg8
g6
sg9
g6
sg10
S'rod.hayslett@enron.com'
p385
sg12
g6
sg13
g6
sg14
I346663
sg15
g6
sg16
I35
sg17
g6
sg18
I1061
sg19
g6
sg20
I38
sg21
I00
sg22
g6
sg23
I571
sg24
I346663
sg25
g6
ssS'BAY FRANKLIN R'
p386
(dp387
g3
I239671
sg4
g6
sg5
I260455
sg7
I827696
sg8
g6
sg9
I400000
sg10
S'frank.bay@enron.com'
p388
sg12
I-82782
sg13
I-201641
sg14
I63014
sg15
I129142
sg16
g6
sg17
g6
sg18
g6
sg19
I69
sg20
g6
sg21
I00
sg22
g6
sg23
g6
sg24
I145796
sg25
g6
ssS'MCCARTY DANNY J'
p389
(dp390
g3
g6
sg4
I1433
sg5
g6
sg7
g6
sg8
g6
sg9
g6
sg10
S'danny.mccarty@enron.com'
p391
sg12
g6
sg13
g6
sg14
I758931
sg15
g6
sg16
I25
sg17
I664375
sg18
I215
sg19
g6
sg20
I2
sg21
I00
sg22
g6
sg23
I508
sg24
I94556
sg25
g6
ssS'FUGH JOHN L'
p392
(dp393
g3
g6
sg4
g6
sg5
I50591
sg7
I50591
sg8
g6
sg9
g6
sg10
g6
sg12
g6
sg13
g6
sg14
I176378
sg15
g6
sg16
g6
sg17
I176378
sg18
g6
sg19
g6
sg20
g6
sg21
I00
sg22
g6
sg23
g6
sg24
g6
sg25
g6
ssS'SCRIMSHAW MATTHEW'
p394
(dp395
g3
g6
sg4
g6
sg5
g6
sg7
g6
sg8
g6
sg9
g6
sg10
S'matthew.scrimshaw@enron.com'
p396
sg12
g6
sg13
g6
sg14
I759557
sg15
g6
sg16
g6
sg17
I759557
sg18
g6
sg19
g6
sg20
g6
sg21
I00
sg22
g6
sg23
g6
sg24
g6
sg25
g6
ssS'KOENIG MARK E'
p397
(dp398
g3
I309946
sg4
I2374
sg5
g6
sg7
I1587421
sg8
g6
sg9
I700000
sg10
S'mark.koenig@enron.com'
p399
sg12
g6
sg13
g6
sg14
I1920055
sg15
I127017
sg16
I53
sg17
I671737
sg18
I61
sg19
I150458
sg20
I15
sg21
I01
sg22
I300000
sg23
I2271
sg24
I1248318
sg25
g6
ssS'SAVAGE FRANK'
p400
(dp401
g3
g6
sg4
g6
sg5
g6
sg7
I3750
sg8
g6
sg9
g6
sg10
g6
sg12
g6
sg13
I-121284
sg14
g6
sg15
g6
sg16
g6
sg17
g6
sg18
g6
sg19
g6
sg20
g6
sg21
I00
sg22
g6
sg23
g6
sg24
g6
sg25
I125034
ssS'IZZO LAWRENCE L'
p402
(dp403
g3
I85274
sg4
I496
sg5
g6
sg7
I1979596
sg8
g6
sg9
g6
sg10
S'larry.izzo@enron.com'
p404
sg12
g6
sg13
g6
sg14
I5819980
sg15
I28093
sg16
I28
sg17
I2165172
sg18
I19
sg19
I1553729
sg20
I5
sg21
I00
sg22
I312500
sg23
I437
sg24
I3654808
sg25
g6
ssS'TILNEY ELIZABETH A'
p405
(dp406
g3
I247338
sg4
I460
sg5
g6
sg7
I399393
sg8
g6
sg9
I300000
sg10
S'elizabeth.tilney@enron.com'
p407
sg12
g6
sg13
I-575000
sg14
I1168042
sg15
g6
sg16
I10
sg17
I591250
sg18
I19
sg19
I152055
sg20
I11
sg21
I00
sg22
I275000
sg23
I379
sg24
I576792
sg25
g6
ssS'MARTIN AMANDA K'
p408
(dp409
g3
I349487
sg4
I1522
sg5
I85430
sg7
I8407016
sg8
g6
sg9
g6
sg10
S'a..martin@enron.com'
p410
sg12
g6
sg13
g6
sg14
I2070306
sg15
I8211
sg16
I8
sg17
I2070306
sg18
I230
sg19
I2818454
sg20
I0
sg21
I00
sg22
I5145434
sg23
I477
sg24
g6
sg25
g6
ssS'BUY RICHARD B'
p411
(dp412
g3
I330546
sg4
I3523
sg5
I649584
sg7
I2355702
sg8
g6
sg9
I900000
sg10
S'rick.buy@enron.com'
p413
sg12
g6
sg13
I-694862
sg14
I3444470
sg15
g6
sg16
I156
sg17
I2542813
sg18
I1053
sg19
I400572
sg20
I71
sg21
I00
sg22
I769862
sg23
I2333
sg24
I901657
sg25
g6
ssS'GRAMM WENDY L'
p414
(dp415
g3
g6
sg4
g6
sg5
g6
sg7
I119292
sg8
g6
sg9
g6
sg10
g6
sg12
g6
sg13
g6
sg14
g6
sg15
g6
sg16
g6
sg17
g6
sg18
g6
sg19
g6
sg20
g6
sg21
I00
sg22
g6
sg23
g6
sg24
g6
sg25
I119292
ssS'CAUSEY RICHARD A'
p416
(dp417
g3
I415189
sg4
I1892
sg5
g6
sg7
I1868758
sg8
g6
sg9
I1000000
sg10
S'richard.causey@enron.com'
p418
sg12
g6
sg13
I-235000
sg14
I2502063
sg15
I30674
sg16
I58
sg17
g6
sg18
I49
sg19
I307895
sg20
I12
sg21
I01
sg22
I350000
sg23
I1585
sg24
I2502063
sg25
g6
ssS'TAYLOR MITCHELL S'
p419
(dp420
g3
I265214
sg4
I533
sg5
I227449
sg7
I1092663
sg8
g6
sg9
I600000
sg10
S'mitchell.taylor@enron.com'
p421
sg12
g6
sg13
g6
sg14
I3745048
sg15
g6
sg16
I0
sg17
I3181250
sg18
I29
sg19
g6
sg20
I0
sg21
I00
sg22
g6
sg23
I300
sg24
I563798
sg25
g6
ssS'DONAHUE JR JEFFREY M'
p422
(dp423
g3
I278601
sg4
I865
sg5
g6
sg7
I875760
sg8
g6
sg9
I800000
sg10
S'jeff.donahue@enron.com'
p424
sg12
g6
sg13
I-300000
sg14
I1080988
sg15
I96268
sg16
I188
sg17
I765920
sg18
I22
sg19
I891
sg20
I11
sg21
I00
sg22
g6
sg23
I772
sg24
I315068
sg25
g6
ssS'GLISAN JR BEN F'
p425
(dp426
g3
I274975
sg4
I873
sg5
g6
sg7
I1272284
sg8
g6
sg9
I600000
sg10
S'ben.glisan@enron.com'
p427
sg12
g6
sg13
g6
sg14
I778546
sg15
I125978
sg16
I52
sg17
I384728
sg18
I16
sg19
I200308
sg20
I6
sg21
I01
sg22
I71023
sg23
I874
sg24
I393818
sg25
g6
ss.